target datalayout = "e-m:e-p270:32:32-p271:32:32-p272:64:64-i64:64-i128:128-f80:128-n8:16:32:64-S128"
target triple = "x86_64-pc-linux-gnu"

%struct.expert_field = type { i32, i32 }
%struct._packet_info = type { ptr, ptr, i32, i32, %struct.nstime_t, %struct.nstime_t, %struct.nstime_t, i8, ptr, ptr, ptr, ptr, %struct._address, %struct._address, %struct._address, %struct._address, %struct._address, %struct._address, i32, ptr, i8, [3 x i8], %struct.anon, i32, i32, i32, i32, ptr, i8, ptr, ptr, i16, i16, i32, i32, i16, i32, i32, ptr, ptr, ptr, i8, i8, i16, i16, i16, i32, i16, i16, ptr, ptr, ptr, ptr, ptr, i32, i32 }
%struct.nstime_t = type { i64, i32 }
%struct._address = type { i32, i32, ptr, ptr }
%struct.anon = type { i8, [3 x i8] }

@hf_cmer_mode = internal global i32 0, align 4
@hf_cmer_keyp = internal global i32 0, align 4
@hf_cmer_disp = internal global i32 0, align 4
@hf_cmer_ind = internal global i32 0, align 4
@hf_cmer_bfr = internal global i32 0, align 4
@ei_cmer_mode = internal global %struct.expert_field zeroinitializer, align 4
@ei_cmer_keyp = internal global %struct.expert_field zeroinitializer, align 4
@ei_cmer_disp = internal global %struct.expert_field zeroinitializer, align 4
@ei_cmer_ind = internal global %struct.expert_field zeroinitializer, align 4
@ei_cmer_bfr = internal global %struct.expert_field zeroinitializer, align 4

; Function Attrs: alwaysinline nounwind
define internal ptr @memcpy.inline(ptr noalias %0, ptr noalias %1, i64 %2) #9 {
  %4 = alloca ptr, align 8
  %5 = alloca ptr, align 8
  %6 = alloca i64, align 8
  store ptr %0, ptr %4, align 8
  store ptr %1, ptr %5, align 8
  store i64 %2, ptr %6, align 8
  %7 = load ptr, ptr %4, align 8
  %8 = load ptr, ptr %5, align 8
  %9 = load i64, ptr %6, align 8
  %10 = load ptr, ptr %4, align 8
  %11 = call i64 @llvm.objectsize.i64.p0(ptr %10, i1 false, i1 true, i1 true)
  %12 = call ptr @__memcpy_chk(ptr noundef %7, ptr noundef %8, i64 noundef %9, i64 noundef %11) #12
  ret ptr %12
}

; Function Attrs: null_pointer_is_valid sspstrong uwtable
define internal i32 @get_uint_parameter(ptr noundef %0, ptr noundef %1, i32 noundef %2) #0 {
  %4 = alloca ptr, align 8
  %5 = alloca ptr, align 8
  %6 = alloca i32, align 4
  %7 = alloca i32, align 4
  %8 = alloca ptr, align 8
  store ptr %0, ptr %4, align 8
  store ptr %1, ptr %5, align 8
  store i32 %2, ptr %6, align 4
  call void @llvm.lifetime.start.p0(i64 4, ptr %7) #12
  call void @llvm.lifetime.start.p0(i64 8, ptr %8) #12
  %9 = load ptr, ptr %4, align 8
  %10 = load i32, ptr %6, align 4
  %11 = add i32 %10, 1
  %12 = sext i32 %11 to i64
  %13 = call noalias ptr @wmem_alloc(ptr noundef %9, i64 noundef %12) #13
  store ptr %13, ptr %8, align 8
  %14 = load ptr, ptr %8, align 8
  %15 = load ptr, ptr %5, align 8
  %16 = load i32, ptr %6, align 4
  %17 = sext i32 %16 to i64
  %18 = call ptr @memcpy.inline(ptr noundef %14, ptr noundef %15, i64 noundef %17) #12
  %19 = load ptr, ptr %8, align 8
  %20 = load i32, ptr %6, align 4
  %21 = sext i32 %20 to i64
  %22 = getelementptr i8, ptr %19, i64 %21
  store i8 0, ptr %22, align 1
  %23 = load ptr, ptr %8, align 8
  %24 = call i64 @g_ascii_strtoull(ptr noundef %23, ptr noundef null, i32 noundef 10)
  %25 = trunc i64 %24 to i32
  store i32 %25, ptr %7, align 4
  %26 = load i32, ptr %7, align 4
  call void @llvm.lifetime.end.p0(i64 8, ptr %8) #12
  call void @llvm.lifetime.end.p0(i64 4, ptr %7) #12
  ret i32 %26
}

; Function Attrs: null_pointer_is_valid sspstrong uwtable
define internal zeroext i1 @dissect_cmer_parameter(ptr noundef %0, ptr noundef %1, ptr noundef %2, i32 noundef %3, i32 noundef %4, i16 noundef zeroext %5, ptr noundef %6, i32 noundef %7, i32 noundef %8, ptr noundef %9, ptr noundef %10) #0 {
  %12 = alloca i1, align 1
  %13 = alloca ptr, align 8
  %14 = alloca ptr, align 8
  %15 = alloca ptr, align 8
  %16 = alloca i32, align 4
  %17 = alloca i32, align 4
  %18 = alloca i16, align 2
  %19 = alloca ptr, align 8
  %20 = alloca i32, align 4
  %21 = alloca i32, align 4
  %22 = alloca ptr, align 8
  %23 = alloca ptr, align 8
  %24 = alloca ptr, align 8
  %25 = alloca i32, align 4
  %26 = alloca i32, align 4
  store ptr %0, ptr %13, align 8
  store ptr %1, ptr %14, align 8
  store ptr %2, ptr %15, align 8
  store i32 %3, ptr %16, align 4
  store i32 %4, ptr %17, align 4
  store i16 %5, ptr %18, align 2
  store ptr %6, ptr %19, align 8
  store i32 %7, ptr %20, align 4
  store i32 %8, ptr %21, align 4
  store ptr %9, ptr %22, align 8
  store ptr %10, ptr %23, align 8
  call void @llvm.lifetime.start.p0(i64 8, ptr %24) #12
  call void @llvm.lifetime.start.p0(i64 4, ptr %25) #12
  %27 = load i32, ptr %17, align 4
  %28 = icmp eq i32 %27, 2
  br i1 %28, label %29, label %33

29:                                               ; preds = %11
  %30 = load i16, ptr %18, align 2
  %31 = zext i16 %30 to i32
  %32 = icmp eq i32 %31, 61
  br i1 %32, label %34, label %33

33:                                               ; preds = %29, %11
  store i1 false, ptr %12, align 1
  store i32 1, ptr %26, align 4
  br label %122

34:                                               ; preds = %29
  %35 = load i32, ptr %20, align 4
  %36 = icmp ugt i32 %35, 4
  br i1 %36, label %37, label %38

37:                                               ; preds = %34
  store i1 false, ptr %12, align 1
  store i32 1, ptr %26, align 4
  br label %122

38:                                               ; preds = %34
  %39 = load ptr, ptr %14, align 8
  %40 = getelementptr inbounds nuw %struct._packet_info, ptr %39, i32 0, i32 51
  %41 = load ptr, ptr %40, align 8
  %42 = load ptr, ptr %19, align 8
  %43 = load i32, ptr %21, align 4
  %44 = call i32 @get_uint_parameter(ptr noundef %41, ptr noundef %42, i32 noundef %43)
  store i32 %44, ptr %25, align 4
  %45 = load i32, ptr %20, align 4
  switch i32 %45, label %121 [
    i32 0, label %46
    i32 1, label %61
    i32 2, label %76
    i32 3, label %91
    i32 4, label %106
  ]

46:                                               ; preds = %38
  %47 = load ptr, ptr %15, align 8
  %48 = load i32, ptr @hf_cmer_mode, align 4
  %49 = load ptr, ptr %13, align 8
  %50 = load i32, ptr %16, align 4
  %51 = load i32, ptr %21, align 4
  %52 = load i32, ptr %25, align 4
  %53 = call ptr @proto_tree_add_uint(ptr noundef %47, i32 noundef %48, ptr noundef %49, i32 noundef %50, i32 noundef %51, i32 noundef %52)
  store ptr %53, ptr %24, align 8
  %54 = load i32, ptr %25, align 4
  %55 = icmp ugt i32 %54, 3
  br i1 %55, label %56, label %60

56:                                               ; preds = %46
  %57 = load ptr, ptr %14, align 8
  %58 = load ptr, ptr %24, align 8
  %59 = call ptr @expert_add_info(ptr noundef %57, ptr noundef %58, ptr noundef @ei_cmer_mode)
  br label %60

60:                                               ; preds = %56, %46
  br label %121

61:                                               ; preds = %38
  %62 = load ptr, ptr %15, align 8
  %63 = load i32, ptr @hf_cmer_keyp, align 4
  %64 = load ptr, ptr %13, align 8
  %65 = load i32, ptr %16, align 4
  %66 = load i32, ptr %21, align 4
  %67 = load i32, ptr %25, align 4
  %68 = call ptr @proto_tree_add_uint(ptr noundef %62, i32 noundef %63, ptr noundef %64, i32 noundef %65, i32 noundef %66, i32 noundef %67)
  store ptr %68, ptr %24, align 8
  %69 = load i32, ptr %25, align 4
  %70 = icmp ugt i32 %69, 2
  br i1 %70, label %71, label %75

71:                                               ; preds = %61
  %72 = load ptr, ptr %14, align 8
  %73 = load ptr, ptr %24, align 8
  %74 = call ptr @expert_add_info(ptr noundef %72, ptr noundef %73, ptr noundef @ei_cmer_keyp)
  br label %75

75:                                               ; preds = %71, %61
  br label %121

76:                                               ; preds = %38
  %77 = load ptr, ptr %15, align 8
  %78 = load i32, ptr @hf_cmer_disp, align 4
  %79 = load ptr, ptr %13, align 8
  %80 = load i32, ptr %16, align 4
  %81 = load i32, ptr %21, align 4
  %82 = load i32, ptr %25, align 4
  %83 = call ptr @proto_tree_add_uint(ptr noundef %77, i32 noundef %78, ptr noundef %79, i32 noundef %80, i32 noundef %81, i32 noundef %82)
  store ptr %83, ptr %24, align 8
  %84 = load i32, ptr %25, align 4
  %85 = icmp ugt i32 %84, 2
  br i1 %85, label %86, label %90

86:                                               ; preds = %76
  %87 = load ptr, ptr %14, align 8
  %88 = load ptr, ptr %24, align 8
  %89 = call ptr @expert_add_info(ptr noundef %87, ptr noundef %88, ptr noundef @ei_cmer_disp)
  br label %90

90:                                               ; preds = %86, %76
  br label %121

91:                                               ; preds = %38
  %92 = load ptr, ptr %15, align 8
  %93 = load i32, ptr @hf_cmer_ind, align 4
  %94 = load ptr, ptr %13, align 8
  %95 = load i32, ptr %16, align 4
  %96 = load i32, ptr %21, align 4
  %97 = load i32, ptr %25, align 4
  %98 = call ptr @proto_tree_add_uint(ptr noundef %92, i32 noundef %93, ptr noundef %94, i32 noundef %95, i32 noundef %96, i32 noundef %97)
  store ptr %98, ptr %24, align 8
  %99 = load i32, ptr %25, align 4
  %100 = icmp ugt i32 %99, 2
  br i1 %100, label %101, label %105

101:                                              ; preds = %91
  %102 = load ptr, ptr %14, align 8
  %103 = load ptr, ptr %24, align 8
  %104 = call ptr @expert_add_info(ptr noundef %102, ptr noundef %103, ptr noundef @ei_cmer_ind)
  br label %105

105:                                              ; preds = %101, %91
  br label %121

106:                                              ; preds = %38
  %107 = load ptr, ptr %15, align 8
  %108 = load i32, ptr @hf_cmer_bfr, align 4
  %109 = load ptr, ptr %13, align 8
  %110 = load i32, ptr %16, align 4
  %111 = load i32, ptr %21, align 4
  %112 = load i32, ptr %25, align 4
  %113 = call ptr @proto_tree_add_uint(ptr noundef %107, i32 noundef %108, ptr noundef %109, i32 noundef %110, i32 noundef %111, i32 noundef %112)
  store ptr %113, ptr %24, align 8
  %114 = load i32, ptr %25, align 4
  %115 = icmp ugt i32 %114, 1
  br i1 %115, label %116, label %120

116:                                              ; preds = %106
  %117 = load ptr, ptr %14, align 8
  %118 = load ptr, ptr %24, align 8
  %119 = call ptr @expert_add_info(ptr noundef %117, ptr noundef %118, ptr noundef @ei_cmer_bfr)
  br label %120

120:                                              ; preds = %116, %106
  br label %121

121:                                              ; preds = %38, %120, %105, %90, %75, %60
  store i1 true, ptr %12, align 1
  store i32 1, ptr %26, align 4
  br label %122

122:                                              ; preds = %121, %37, %33
  call void @llvm.lifetime.end.p0(i64 4, ptr %25) #12
  call void @llvm.lifetime.end.p0(i64 8, ptr %24) #12
  %123 = load i1, ptr %12, align 1
  ret i1 %123
}