; Function Attrs: null_pointer_is_valid sspstrong uwtable
define internal noundef zeroext i1 @dissect_cmer_parameter(ptr noundef %0, ptr noundef %1, ptr noundef %2, i32 noundef %3, i32 noundef %4, i16 noundef zeroext %5, ptr noundef readonly captures(none) %6, i32 noundef %7, i32 noundef %8, ptr readnone captures(none) %9, ptr readnone captures(none) %10) #0 {
  %12 = icmp eq i32 %4, 2
  %13 = icmp eq i16 %5, 61
  %or.cond.not52.not55 = and i1 %12, %13
  %14 = icmp ult i32 %7, 5
  %or.cond50.not = and i1 %or.cond.not52.not55, %14
  br i1 %or.cond50.not, label %15, label %57

15:                                               ; preds = %11
  %16 = getelementptr inbounds nuw i8, ptr %1, i64 408
  %17 = load ptr, ptr %16, align 8
  %18 = add i32 %8, 1
  %19 = sext i32 %18 to i64
  %20 = tail call noalias ptr @wmem_alloc(ptr noundef %17, i64 noundef %19) #12
  %21 = sext i32 %8 to i64
  %22 = icmp ne i32 %18, -1
  tail call void @llvm.assume(i1 %22)
  %23 = tail call ptr @__memcpy_chk(ptr noundef %20, ptr noundef readonly %6, i64 noundef range(i64 -2147483648, 2147483648) %21, i64 noundef %19) #13, !alias.scope !79
  %24 = getelementptr i8, ptr %20, i64 %21
  store i8 0, ptr %24, align 1
  %25 = tail call i64 @g_ascii_strtoull(ptr noundef %20, ptr noundef null, i32 noundef 10)
  %26 = trunc i64 %25 to i32
  switch i32 %7, label %default.unreachable [
    i32 0, label %27
    i32 1, label %33
    i32 2, label %39
    i32 3, label %45
    i32 4, label %51
  ]

27:                                               ; preds = %15
  %28 = load i32, ptr @hf_cmer_mode, align 4
  %29 = tail call ptr @proto_tree_add_uint(ptr noundef %2, i32 noundef %28, ptr noundef %0, i32 noundef %3, i32 noundef %8, i32 noundef %26)
  %30 = icmp ugt i32 %26, 3
  br i1 %30, label %31, label %57

31:                                               ; preds = %27
  %32 = tail call ptr @expert_add_info(ptr noundef %1, ptr noundef %29, ptr noundef nonnull @ei_cmer_mode)
  br label %57

33:                                               ; preds = %15
  %34 = load i32, ptr @hf_cmer_keyp, align 4
  %35 = tail call ptr @proto_tree_add_uint(ptr noundef %2, i32 noundef %34, ptr noundef %0, i32 noundef %3, i32 noundef %8, i32 noundef %26)
  %36 = icmp ugt i32 %26, 2
  br i1 %36, label %37, label %57

37:                                               ; preds = %33
  %38 = tail call ptr @expert_add_info(ptr noundef %1, ptr noundef %35, ptr noundef nonnull @ei_cmer_keyp)
  br label %57

39:                                               ; preds = %15
  %40 = load i32, ptr @hf_cmer_disp, align 4
  %41 = tail call ptr @proto_tree_add_uint(ptr noundef %2, i32 noundef %40, ptr noundef %0, i32 noundef %3, i32 noundef %8, i32 noundef %26)
  %42 = icmp ugt i32 %26, 2
  br i1 %42, label %43, label %57

43:                                               ; preds = %39
  %44 = tail call ptr @expert_add_info(ptr noundef %1, ptr noundef %41, ptr noundef nonnull @ei_cmer_disp)
  br label %57

45:                                               ; preds = %15
  %46 = load i32, ptr @hf_cmer_ind, align 4
  %47 = tail call ptr @proto_tree_add_uint(ptr noundef %2, i32 noundef %46, ptr noundef %0, i32 noundef %3, i32 noundef %8, i32 noundef %26)
  %48 = icmp ugt i32 %26, 2
  br i1 %48, label %49, label %57

49:                                               ; preds = %45
  %50 = tail call ptr @expert_add_info(ptr noundef %1, ptr noundef %47, ptr noundef nonnull @ei_cmer_ind)
  br label %57

51:                                               ; preds = %15
  %52 = load i32, ptr @hf_cmer_bfr, align 4
  %53 = tail call ptr @proto_tree_add_uint(ptr noundef %2, i32 noundef %52, ptr noundef %0, i32 noundef %3, i32 noundef %8, i32 noundef %26)
  %54 = icmp ugt i32 %26, 1
  br i1 %54, label %55, label %57

55:                                               ; preds = %51
  %56 = tail call ptr @expert_add_info(ptr noundef %1, ptr noundef %53, ptr noundef nonnull @ei_cmer_bfr)
  br label %57

default.unreachable:                              ; preds = %15
  unreachable

57:                                               ; preds = %31, %27, %37, %33, %43, %39, %49, %45, %55, %51, %11
  ret i1 %or.cond50.not
}